target datalayout = "e-m:e-p270:32:32-p271:32:32-p272:64:64-i64:64-i128:128-f80:128-n8:16:32:64-S128"
target triple = "x86_64-pc-linux-gnu"

%"class.std::logic_error" = type { %"class.std::exception", %"struct.std::__cow_string" }
%"class.std::exception" = type { ptr }
%"struct.std::__cow_string" = type { %union.anon.8 }
%union.anon.8 = type { ptr }

@.str.5 = private unnamed_addr constant [5 x i8] c"WARN\00", align 1
@.str.6 = private unnamed_addr constant [6 x i8] c"CHECK\00", align 1
@.str.7 = private unnamed_addr constant [8 x i8] c"REQUIRE\00", align 1
@.str.8 = private unnamed_addr constant [11 x i8] c"WARN_FALSE\00", align 1
@.str.9 = private unnamed_addr constant [12 x i8] c"CHECK_FALSE\00", align 1
@.str.10 = private unnamed_addr constant [14 x i8] c"REQUIRE_FALSE\00", align 1
@.str.11 = private unnamed_addr constant [12 x i8] c"WARN_THROWS\00", align 1
@.str.12 = private unnamed_addr constant [13 x i8] c"CHECK_THROWS\00", align 1
@.str.13 = private unnamed_addr constant [15 x i8] c"REQUIRE_THROWS\00", align 1
@.str.14 = private unnamed_addr constant [15 x i8] c"WARN_THROWS_AS\00", align 1
@.str.15 = private unnamed_addr constant [16 x i8] c"CHECK_THROWS_AS\00", align 1
@.str.16 = private unnamed_addr constant [18 x i8] c"REQUIRE_THROWS_AS\00", align 1
@.str.17 = private unnamed_addr constant [17 x i8] c"WARN_THROWS_WITH\00", align 1
@.str.18 = private unnamed_addr constant [18 x i8] c"CHECK_THROWS_WITH\00", align 1
@.str.19 = private unnamed_addr constant [20 x i8] c"REQUIRE_THROWS_WITH\00", align 1
@.str.20 = private unnamed_addr constant [20 x i8] c"WARN_THROWS_WITH_AS\00", align 1
@.str.21 = private unnamed_addr constant [21 x i8] c"CHECK_THROWS_WITH_AS\00", align 1
@.str.22 = private unnamed_addr constant [23 x i8] c"REQUIRE_THROWS_WITH_AS\00", align 1
@.str.23 = private unnamed_addr constant [13 x i8] c"WARN_NOTHROW\00", align 1
@.str.24 = private unnamed_addr constant [14 x i8] c"CHECK_NOTHROW\00", align 1
@.str.25 = private unnamed_addr constant [16 x i8] c"REQUIRE_NOTHROW\00", align 1
@.str.26 = private unnamed_addr constant [8 x i8] c"WARN_EQ\00", align 1
@.str.27 = private unnamed_addr constant [9 x i8] c"CHECK_EQ\00", align 1
@.str.28 = private unnamed_addr constant [11 x i8] c"REQUIRE_EQ\00", align 1
@.str.29 = private unnamed_addr constant [8 x i8] c"WARN_NE\00", align 1
@.str.30 = private unnamed_addr constant [9 x i8] c"CHECK_NE\00", align 1
@.str.31 = private unnamed_addr constant [11 x i8] c"REQUIRE_NE\00", align 1
@.str.32 = private unnamed_addr constant [8 x i8] c"WARN_GT\00", align 1
@.str.33 = private unnamed_addr constant [9 x i8] c"CHECK_GT\00", align 1
@.str.34 = private unnamed_addr constant [11 x i8] c"REQUIRE_GT\00", align 1
@.str.35 = private unnamed_addr constant [8 x i8] c"WARN_LT\00", align 1
@.str.36 = private unnamed_addr constant [9 x i8] c"CHECK_LT\00", align 1
@.str.37 = private unnamed_addr constant [11 x i8] c"REQUIRE_LT\00", align 1
@.str.38 = private unnamed_addr constant [8 x i8] c"WARN_GE\00", align 1
@.str.39 = private unnamed_addr constant [9 x i8] c"CHECK_GE\00", align 1
@.str.40 = private unnamed_addr constant [11 x i8] c"REQUIRE_GE\00", align 1
@.str.41 = private unnamed_addr constant [8 x i8] c"WARN_LE\00", align 1
@.str.42 = private unnamed_addr constant [9 x i8] c"CHECK_LE\00", align 1
@.str.43 = private unnamed_addr constant [11 x i8] c"REQUIRE_LE\00", align 1
@.str.44 = private unnamed_addr constant [11 x i8] c"WARN_UNARY\00", align 1
@.str.45 = private unnamed_addr constant [12 x i8] c"CHECK_UNARY\00", align 1
@.str.46 = private unnamed_addr constant [14 x i8] c"REQUIRE_UNARY\00", align 1
@.str.47 = private unnamed_addr constant [17 x i8] c"WARN_UNARY_FALSE\00", align 1
@.str.48 = private unnamed_addr constant [18 x i8] c"CHECK_UNARY_FALSE\00", align 1
@.str.49 = private unnamed_addr constant [20 x i8] c"REQUIRE_UNARY_FALSE\00", align 1
@.str.50 = private unnamed_addr constant [208 x i8] c"generated/home/dtcxzyw/WorkSpace/Projects/compilers/llvm-opt-benchmark/bench/nlohmann_json/json/tests/abi/../thirdparty/doctest/doctest.h:3865: Internal doctest error: Tried stringifying invalid assert type!\00", align 1

; Function Attrs: mustprogress uwtable
define dso_local noundef ptr @_ZN7doctest12assertStringENS_10assertType4EnumE(i32 noundef %0) #8 personality ptr @__gxx_personality_v0 {
  %2 = alloca ptr, align 8
  %3 = alloca i32, align 4
  %4 = alloca %"class.std::logic_error", align 8
  %5 = alloca ptr, align 8
  %6 = alloca i32, align 4
  store i32 %0, ptr %3, align 4, !tbaa !79
  %7 = load i32, ptr %3, align 4, !tbaa !79
  switch i32 %7, label %53 [
    i32 9, label %8
    i32 10, label %9
    i32 12, label %10
    i32 265, label %11
    i32 266, label %12
    i32 268, label %13
    i32 17, label %14
    i32 18, label %15
    i32 20, label %16
    i32 33, label %17
    i32 34, label %18
    i32 36, label %19
    i32 65, label %20
    i32 66, label %21
    i32 68, label %22
    i32 97, label %23
    i32 98, label %24
    i32 100, label %25
    i32 129, label %26
    i32 130, label %27
    i32 132, label %28
    i32 1033, label %29
    i32 1034, label %30
    i32 1036, label %31
    i32 2057, label %32
    i32 2058, label %33
    i32 2060, label %34
    i32 8201, label %35
    i32 8202, label %36
    i32 8204, label %37
    i32 4105, label %38
    i32 4106, label %39
    i32 4108, label %40
    i32 16393, label %41
    i32 16394, label %42
    i32 16396, label %43
    i32 32777, label %44
    i32 32778, label %45
    i32 32780, label %46
    i32 521, label %47
    i32 522, label %48
    i32 524, label %49
    i32 777, label %50
    i32 778, label %51
    i32 780, label %52
  ]

8:                                                ; preds = %1
  store ptr @.str.5, ptr %2, align 8
  br label %59

9:                                                ; preds = %1
  store ptr @.str.6, ptr %2, align 8
  br label %59

10:                                               ; preds = %1
  store ptr @.str.7, ptr %2, align 8
  br label %59

11:                                               ; preds = %1
  store ptr @.str.8, ptr %2, align 8
  br label %59

12:                                               ; preds = %1
  store ptr @.str.9, ptr %2, align 8
  br label %59

13:                                               ; preds = %1
  store ptr @.str.10, ptr %2, align 8
  br label %59

14:                                               ; preds = %1
  store ptr @.str.11, ptr %2, align 8
  br label %59

15:                                               ; preds = %1
  store ptr @.str.12, ptr %2, align 8
  br label %59

16:                                               ; preds = %1
  store ptr @.str.13, ptr %2, align 8
  br label %59

17:                                               ; preds = %1
  store ptr @.str.14, ptr %2, align 8
  br label %59

18:                                               ; preds = %1
  store ptr @.str.15, ptr %2, align 8
  br label %59

19:                                               ; preds = %1
  store ptr @.str.16, ptr %2, align 8
  br label %59

20:                                               ; preds = %1
  store ptr @.str.17, ptr %2, align 8
  br label %59

21:                                               ; preds = %1
  store ptr @.str.18, ptr %2, align 8
  br label %59

22:                                               ; preds = %1
  store ptr @.str.19, ptr %2, align 8
  br label %59

23:                                               ; preds = %1
  store ptr @.str.20, ptr %2, align 8
  br label %59

24:                                               ; preds = %1
  store ptr @.str.21, ptr %2, align 8
  br label %59

25:                                               ; preds = %1
  store ptr @.str.22, ptr %2, align 8
  br label %59

26:                                               ; preds = %1
  store ptr @.str.23, ptr %2, align 8
  br label %59

27:                                               ; preds = %1
  store ptr @.str.24, ptr %2, align 8
  br label %59

28:                                               ; preds = %1
  store ptr @.str.25, ptr %2, align 8
  br label %59

29:                                               ; preds = %1
  store ptr @.str.26, ptr %2, align 8
  br label %59

30:                                               ; preds = %1
  store ptr @.str.27, ptr %2, align 8
  br label %59

31:                                               ; preds = %1
  store ptr @.str.28, ptr %2, align 8
  br label %59

32:                                               ; preds = %1
  store ptr @.str.29, ptr %2, align 8
  br label %59

33:                                               ; preds = %1
  store ptr @.str.30, ptr %2, align 8
  br label %59

34:                                               ; preds = %1
  store ptr @.str.31, ptr %2, align 8
  br label %59

35:                                               ; preds = %1
  store ptr @.str.32, ptr %2, align 8
  br label %59

36:                                               ; preds = %1
  store ptr @.str.33, ptr %2, align 8
  br label %59

37:                                               ; preds = %1
  store ptr @.str.34, ptr %2, align 8
  br label %59

38:                                               ; preds = %1
  store ptr @.str.35, ptr %2, align 8
  br label %59

39:                                               ; preds = %1
  store ptr @.str.36, ptr %2, align 8
  br label %59

40:                                               ; preds = %1
  store ptr @.str.37, ptr %2, align 8
  br label %59

41:                                               ; preds = %1
  store ptr @.str.38, ptr %2, align 8
  br label %59

42:                                               ; preds = %1
  store ptr @.str.39, ptr %2, align 8
  br label %59

43:                                               ; preds = %1
  store ptr @.str.40, ptr %2, align 8
  br label %59

44:                                               ; preds = %1
  store ptr @.str.41, ptr %2, align 8
  br label %59

45:                                               ; preds = %1
  store ptr @.str.42, ptr %2, align 8
  br label %59

46:                                               ; preds = %1
  store ptr @.str.43, ptr %2, align 8
  br label %59

47:                                               ; preds = %1
  store ptr @.str.44, ptr %2, align 8
  br label %59

48:                                               ; preds = %1
  store ptr @.str.45, ptr %2, align 8
  br label %59

49:                                               ; preds = %1
  store ptr @.str.46, ptr %2, align 8
  br label %59

50:                                               ; preds = %1
  store ptr @.str.47, ptr %2, align 8
  br label %59

51:                                               ; preds = %1
  store ptr @.str.48, ptr %2, align 8
  br label %59

52:                                               ; preds = %1
  store ptr @.str.49, ptr %2, align 8
  br label %59

53:                                               ; preds = %1
  call void @llvm.lifetime.start.p0(i64 16, ptr %4) #7
  call void @_ZNSt11logic_errorC1EPKc(ptr noundef nonnull align 8 dereferenceable(16) %4, ptr noundef @.str.50)
  invoke void @_ZN7doctest12_GLOBAL__N_115throw_exceptionISt11logic_errorEEvRKT_(ptr noundef nonnull align 8 dereferenceable(16) %4) #29
          to label %54 unwind label %55

54:                                               ; preds = %53
  unreachable

55:                                               ; preds = %53
  %56 = landingpad { ptr, i32 }
          cleanup
  %57 = extractvalue { ptr, i32 } %56, 0
  store ptr %57, ptr %5, align 8
  %58 = extractvalue { ptr, i32 } %56, 1
  store i32 %58, ptr %6, align 4
  call void @_ZNSt11logic_errorD1Ev(ptr noundef nonnull align 8 dereferenceable(16) %4) #7
  call void @llvm.lifetime.end.p0(i64 16, ptr %4) #7
  br label %61

59:                                               ; preds = %52, %51, %50, %49, %48, %47, %46, %45, %44, %43, %42, %41, %40, %39, %38, %37, %36, %35, %34, %33, %32, %31, %30, %29, %28, %27, %26, %25, %24, %23, %22, %21, %20, %19, %18, %17, %16, %15, %14, %13, %12, %11, %10, %9, %8
  %60 = load ptr, ptr %2, align 8
  ret ptr %60

61:                                               ; preds = %55
  %62 = load ptr, ptr %5, align 8
  %63 = load i32, ptr %6, align 4
  %64 = insertvalue { ptr, i32 } poison, ptr %62, 0
  %65 = insertvalue { ptr, i32 } %64, i32 %63, 1
  resume { ptr, i32 } %65
}