; Function Attrs: mustprogress uwtable
define dso_local noundef nonnull ptr @_ZN7doctest12assertStringENS_10assertType4EnumE(i32 noundef %0) local_unnamed_addr #8 personality ptr @__gxx_personality_v0 {
  %2 = alloca %"class.std::logic_error", align 8
  switch i32 %0, label %47 [
    i32 9, label %51
    i32 10, label %3
    i32 12, label %4
    i32 265, label %5
    i32 266, label %6
    i32 268, label %7
    i32 17, label %8
    i32 18, label %9
    i32 20, label %10
    i32 33, label %11
    i32 34, label %12
    i32 36, label %13
    i32 65, label %14
    i32 66, label %15
    i32 68, label %16
    i32 97, label %17
    i32 98, label %18
    i32 100, label %19
    i32 129, label %20
    i32 130, label %21
    i32 132, label %22
    i32 1033, label %23
    i32 1034, label %24
    i32 1036, label %25
    i32 2057, label %26
    i32 2058, label %27
    i32 2060, label %28
    i32 8201, label %29
    i32 8202, label %30
    i32 8204, label %31
    i32 4105, label %32
    i32 4106, label %33
    i32 4108, label %34
    i32 16393, label %35
    i32 16394, label %36
    i32 16396, label %37
    i32 32777, label %38
    i32 32778, label %39
    i32 32780, label %40
    i32 521, label %41
    i32 522, label %42
    i32 524, label %43
    i32 777, label %44
    i32 778, label %45
    i32 780, label %46
  ]

3:                                                ; preds = %1
  br label %51

4:                                                ; preds = %1
  br label %51

5:                                                ; preds = %1
  br label %51

6:                                                ; preds = %1
  br label %51

7:                                                ; preds = %1
  br label %51

8:                                                ; preds = %1
  br label %51

9:                                                ; preds = %1
  br label %51

10:                                               ; preds = %1
  br label %51

11:                                               ; preds = %1
  br label %51

12:                                               ; preds = %1
  br label %51

13:                                               ; preds = %1
  br label %51

14:                                               ; preds = %1
  br label %51

15:                                               ; preds = %1
  br label %51

16:                                               ; preds = %1
  br label %51

17:                                               ; preds = %1
  br label %51

18:                                               ; preds = %1
  br label %51

19:                                               ; preds = %1
  br label %51

20:                                               ; preds = %1
  br label %51

21:                                               ; preds = %1
  br label %51

22:                                               ; preds = %1
  br label %51

23:                                               ; preds = %1
  br label %51

24:                                               ; preds = %1
  br label %51

25:                                               ; preds = %1
  br label %51

26:                                               ; preds = %1
  br label %51

27:                                               ; preds = %1
  br label %51

28:                                               ; preds = %1
  br label %51

29:                                               ; preds = %1
  br label %51

30:                                               ; preds = %1
  br label %51

31:                                               ; preds = %1
  br label %51

32:                                               ; preds = %1
  br label %51

33:                                               ; preds = %1
  br label %51

34:                                               ; preds = %1
  br label %51

35:                                               ; preds = %1
  br label %51

36:                                               ; preds = %1
  br label %51

37:                                               ; preds = %1
  br label %51

38:                                               ; preds = %1
  br label %51

39:                                               ; preds = %1
  br label %51

40:                                               ; preds = %1
  br label %51

41:                                               ; preds = %1
  br label %51

42:                                               ; preds = %1
  br label %51

43:                                               ; preds = %1
  br label %51

44:                                               ; preds = %1
  br label %51

45:                                               ; preds = %1
  br label %51

46:                                               ; preds = %1
  br label %51

47:                                               ; preds = %1
  call void @llvm.lifetime.start.p0(i64 16, ptr nonnull %2) #49
  call void @_ZNSt11logic_errorC1EPKc(ptr noundef nonnull align 8 dereferenceable(16) %2, ptr noundef nonnull @.str.50)
  invoke fastcc void @_ZN7doctest12_GLOBAL__N_115throw_exceptionISt11logic_errorEEvRKT_(ptr noundef nonnull align 8 dereferenceable(16) %2) #50
          to label %48 unwind label %49

48:                                               ; preds = %47
  unreachable

49:                                               ; preds = %47
  %50 = landingpad { ptr, i32 }
          cleanup
  call void @_ZNSt11logic_errorD1Ev(ptr noundef nonnull align 8 dereferenceable(16) %2) #49
  call void @llvm.lifetime.end.p0(i64 16, ptr nonnull %2) #49
  resume { ptr, i32 } %50

51:                                               ; preds = %1, %46, %45, %44, %43, %42, %41, %40, %39, %38, %37, %36, %35, %34, %33, %32, %31, %30, %29, %28, %27, %26, %25, %24, %23, %22, %21, %20, %19, %18, %17, %16, %15, %14, %13, %12, %11, %10, %9, %8, %7, %6, %5, %4, %3
  %.0 = phi ptr [ @.str.49, %46 ], [ @.str.48, %45 ], [ @.str.47, %44 ], [ @.str.46, %43 ], [ @.str.45, %42 ], [ @.str.44, %41 ], [ @.str.43, %40 ], [ @.str.42, %39 ], [ @.str.41, %38 ], [ @.str.40, %37 ], [ @.str.39, %36 ], [ @.str.38, %35 ], [ @.str.37, %34 ], [ @.str.36, %33 ], [ @.str.35, %32 ], [ @.str.34, %31 ], [ @.str.33, %30 ], [ @.str.32, %29 ], [ @.str.31, %28 ], [ @.str.30, %27 ], [ @.str.29, %26 ], [ @.str.28, %25 ], [ @.str.27, %24 ], [ @.str.26, %23 ], [ @.str.25, %22 ], [ @.str.24, %21 ], [ @.str.23, %20 ], [ @.str.22, %19 ], [ @.str.21, %18 ], [ @.str.20, %17 ], [ @.str.19, %16 ], [ @.str.18, %15 ], [ @.str.17, %14 ], [ @.str.16, %13 ], [ @.str.15, %12 ], [ @.str.14, %11 ], [ @.str.13, %10 ], [ @.str.12, %9 ], [ @.str.11, %8 ], [ @.str.10, %7 ], [ @.str.9, %6 ], [ @.str.8, %5 ], [ @.str.7, %4 ], [ @.str.6, %3 ], [ @.str.5, %1 ]
  ret ptr %.0
}